target datalayout = "e-m:e-p270:32:32-p271:32:32-p272:64:64-i64:64-i128:128-f80:128-n8:16:32:64-S128"
target triple = "x86_64-pc-linux-gnu"

%struct.Proto = type { i8, i8, i8, i8, i8, i8, i8, i8, ptr, ptr, ptr, ptr, ptr, i64, ptr, ptr, ptr, ptr, ptr, ptr, ptr, ptr, ptr, ptr, i32, i32, i32, i32, i32, i32, i32, i32, i32, i32 }

; Function Attrs: mustprogress nounwind uwtable
define hidden noundef i32 @_Z12luaG_getlineP5Protoi(ptr noundef %0, i32 noundef %1) #2 {
  %3 = alloca i32, align 4
  %4 = alloca ptr, align 8
  %5 = alloca i32, align 4
  store ptr %0, ptr %4, align 8, !tbaa !27
  store i32 %1, ptr %5, align 4, !tbaa !9
  %6 = load ptr, ptr %4, align 8, !tbaa !27
  %7 = getelementptr inbounds nuw %struct.Proto, ptr %6, i32 0, i32 14
  %8 = load ptr, ptr %7, align 8, !tbaa !94
  %9 = icmp ne ptr %8, null
  br i1 %9, label %11, label %10

10:                                               ; preds = %2
  store i32 0, ptr %3, align 4
  br label %32

11:                                               ; preds = %2
  %12 = load ptr, ptr %4, align 8, !tbaa !27
  %13 = getelementptr inbounds nuw %struct.Proto, ptr %12, i32 0, i32 15
  %14 = load ptr, ptr %13, align 8, !tbaa !106
  %15 = load i32, ptr %5, align 4, !tbaa !9
  %16 = load ptr, ptr %4, align 8, !tbaa !27
  %17 = getelementptr inbounds nuw %struct.Proto, ptr %16, i32 0, i32 30
  %18 = load i32, ptr %17, align 8, !tbaa !107
  %19 = ashr i32 %15, %18
  %20 = sext i32 %19 to i64
  %21 = getelementptr inbounds i32, ptr %14, i64 %20
  %22 = load i32, ptr %21, align 4, !tbaa !9
  %23 = load ptr, ptr %4, align 8, !tbaa !27
  %24 = getelementptr inbounds nuw %struct.Proto, ptr %23, i32 0, i32 14
  %25 = load ptr, ptr %24, align 8, !tbaa !94
  %26 = load i32, ptr %5, align 4, !tbaa !9
  %27 = sext i32 %26 to i64
  %28 = getelementptr inbounds i8, ptr %25, i64 %27
  %29 = load i8, ptr %28, align 1, !tbaa !37
  %30 = zext i8 %29 to i32
  %31 = add nsw i32 %22, %30
  store i32 %31, ptr %3, align 4
  br label %32

32:                                               ; preds = %11, %10
  %33 = load i32, ptr %3, align 4
  ret i32 %33
}

; Function Attrs: mustprogress uwtable
define internal noundef i32 @_ZL11getnextlineP5Protoi(ptr noundef %0, i32 noundef %1) #0 {
  %3 = alloca i32, align 4
  %4 = alloca ptr, align 8
  %5 = alloca i32, align 4
  %6 = alloca i32, align 4
  %7 = alloca i32, align 4
  %8 = alloca i32, align 4
  %9 = alloca i32, align 4
  %10 = alloca i32, align 4
  %11 = alloca i32, align 4
  store ptr %0, ptr %4, align 8, !tbaa !27
  store i32 %1, ptr %5, align 4, !tbaa !9
  call void @llvm.lifetime.start.p0(i64 4, ptr %6) #11
  store i32 -1, ptr %6, align 4, !tbaa !9
  %12 = load ptr, ptr %4, align 8, !tbaa !27
  %13 = getelementptr inbounds nuw %struct.Proto, ptr %12, i32 0, i32 14
  %14 = load ptr, ptr %13, align 8, !tbaa !94
  %15 = icmp ne ptr %14, null
  br i1 %15, label %16, label %67

16:                                               ; preds = %2
  call void @llvm.lifetime.start.p0(i64 4, ptr %7) #11
  store i32 0, ptr %7, align 4, !tbaa !9
  br label %17

17:                                               ; preds = %61, %16
  %18 = load i32, ptr %7, align 4, !tbaa !9
  %19 = load ptr, ptr %4, align 8, !tbaa !27
  %20 = getelementptr inbounds nuw %struct.Proto, ptr %19, i32 0, i32 24
  %21 = load i32, ptr %20, align 8, !tbaa !96
  %22 = icmp slt i32 %18, %21
  br i1 %22, label %24, label %23

23:                                               ; preds = %17
  store i32 2, ptr %8, align 4
  br label %64

24:                                               ; preds = %17
  %25 = load ptr, ptr %4, align 8, !tbaa !27
  %26 = getelementptr inbounds nuw %struct.Proto, ptr %25, i32 0, i32 9
  %27 = load ptr, ptr %26, align 8, !tbaa !51
  %28 = load i32, ptr %7, align 4, !tbaa !9
  %29 = sext i32 %28 to i64
  %30 = getelementptr inbounds i32, ptr %27, i64 %29
  %31 = load i32, ptr %30, align 4, !tbaa !9
  %32 = and i32 %31, 255
  %33 = icmp eq i32 %32, 65
  br i1 %33, label %34, label %35

34:                                               ; preds = %24
  br label %61

35:                                               ; preds = %24
  call void @llvm.lifetime.start.p0(i64 4, ptr %9) #11
  %36 = load ptr, ptr %4, align 8, !tbaa !27
  %37 = load i32, ptr %7, align 4, !tbaa !9
  %38 = call noundef i32 @_Z12luaG_getlineP5Protoi(ptr noundef %36, i32 noundef %37)
  store i32 %38, ptr %9, align 4, !tbaa !9
  %39 = load i32, ptr %9, align 4, !tbaa !9
  %40 = load i32, ptr %5, align 4, !tbaa !9
  %41 = icmp eq i32 %39, %40
  br i1 %41, label %42, label %44

42:                                               ; preds = %35
  %43 = load i32, ptr %5, align 4, !tbaa !9
  store i32 %43, ptr %3, align 4
  store i32 1, ptr %8, align 4
  br label %58

44:                                               ; preds = %35
  %45 = load i32, ptr %9, align 4, !tbaa !9
  %46 = load i32, ptr %5, align 4, !tbaa !9
  %47 = icmp sgt i32 %45, %46
  br i1 %47, label %48, label %57

48:                                               ; preds = %44
  %49 = load i32, ptr %6, align 4, !tbaa !9
  %50 = icmp eq i32 %49, -1
  br i1 %50, label %55, label %51

51:                                               ; preds = %48
  %52 = load i32, ptr %9, align 4, !tbaa !9
  %53 = load i32, ptr %6, align 4, !tbaa !9
  %54 = icmp slt i32 %52, %53
  br i1 %54, label %55, label %57

55:                                               ; preds = %51, %48
  %56 = load i32, ptr %9, align 4, !tbaa !9
  store i32 %56, ptr %6, align 4, !tbaa !9
  br label %57

57:                                               ; preds = %55, %51, %44
  store i32 0, ptr %8, align 4
  br label %58

58:                                               ; preds = %57, %42
  call void @llvm.lifetime.end.p0(i64 4, ptr %9) #11
  %59 = load i32, ptr %8, align 4
  switch i32 %59, label %64 [
    i32 0, label %60
  ]

60:                                               ; preds = %58
  br label %61

61:                                               ; preds = %60, %34
  %62 = load i32, ptr %7, align 4, !tbaa !9
  %63 = add nsw i32 %62, 1
  store i32 %63, ptr %7, align 4, !tbaa !9
  br label %17, !llvm.loop !109

64:                                               ; preds = %58, %23
  call void @llvm.lifetime.end.p0(i64 4, ptr %7) #11
  %65 = load i32, ptr %8, align 4
  switch i32 %65, label %114 [
    i32 2, label %66
  ]

66:                                               ; preds = %64
  br label %67

67:                                               ; preds = %66, %2
  call void @llvm.lifetime.start.p0(i64 4, ptr %10) #11
  store i32 0, ptr %10, align 4, !tbaa !9
  br label %68

68:                                               ; preds = %107, %67
  %69 = load i32, ptr %10, align 4, !tbaa !9
  %70 = load ptr, ptr %4, align 8, !tbaa !27
  %71 = getelementptr inbounds nuw %struct.Proto, ptr %70, i32 0, i32 25
  %72 = load i32, ptr %71, align 4, !tbaa !103
  %73 = icmp slt i32 %69, %72
  br i1 %73, label %75, label %74

74:                                               ; preds = %68
  store i32 5, ptr %8, align 4
  br label %110

75:                                               ; preds = %68
  call void @llvm.lifetime.start.p0(i64 4, ptr %11) #11
  %76 = load ptr, ptr %4, align 8, !tbaa !27
  %77 = getelementptr inbounds nuw %struct.Proto, ptr %76, i32 0, i32 10
  %78 = load ptr, ptr %77, align 8, !tbaa !104
  %79 = load i32, ptr %10, align 4, !tbaa !9
  %80 = sext i32 %79 to i64
  %81 = getelementptr inbounds ptr, ptr %78, i64 %80
  %82 = load ptr, ptr %81, align 8, !tbaa !27
  %83 = load i32, ptr %5, align 4, !tbaa !9
  %84 = call noundef i32 @_ZL11getnextlineP5Protoi(ptr noundef %82, i32 noundef %83)
  store i32 %84, ptr %11, align 4, !tbaa !9
  %85 = load i32, ptr %11, align 4, !tbaa !9
  %86 = load i32, ptr %5, align 4, !tbaa !9
  %87 = icmp eq i32 %85, %86
  br i1 %87, label %88, label %90

88:                                               ; preds = %75
  %89 = load i32, ptr %5, align 4, !tbaa !9
  store i32 %89, ptr %3, align 4
  store i32 1, ptr %8, align 4
  br label %104

90:                                               ; preds = %75
  %91 = load i32, ptr %11, align 4, !tbaa !9
  %92 = load i32, ptr %5, align 4, !tbaa !9
  %93 = icmp sgt i32 %91, %92
  br i1 %93, label %94, label %103

94:                                               ; preds = %90
  %95 = load i32, ptr %6, align 4, !tbaa !9
  %96 = icmp eq i32 %95, -1
  br i1 %96, label %101, label %97

97:                                               ; preds = %94
  %98 = load i32, ptr %11, align 4, !tbaa !9
  %99 = load i32, ptr %6, align 4, !tbaa !9
  %100 = icmp slt i32 %98, %99
  br i1 %100, label %101, label %103

101:                                              ; preds = %97, %94
  %102 = load i32, ptr %11, align 4, !tbaa !9
  store i32 %102, ptr %6, align 4, !tbaa !9
  br label %103

103:                                              ; preds = %101, %97, %90
  store i32 0, ptr %8, align 4
  br label %104

104:                                              ; preds = %103, %88
  call void @llvm.lifetime.end.p0(i64 4, ptr %11) #11
  %105 = load i32, ptr %8, align 4
  switch i32 %105, label %110 [
    i32 0, label %106
  ]

106:                                              ; preds = %104
  br label %107

107:                                              ; preds = %106
  %108 = load i32, ptr %10, align 4, !tbaa !9
  %109 = add nsw i32 %108, 1
  store i32 %109, ptr %10, align 4, !tbaa !9
  br label %68, !llvm.loop !110

110:                                              ; preds = %104, %74
  call void @llvm.lifetime.end.p0(i64 4, ptr %10) #11
  %111 = load i32, ptr %8, align 4
  switch i32 %111, label %114 [
    i32 5, label %112
  ]

112:                                              ; preds = %110
  %113 = load i32, ptr %6, align 4, !tbaa !9
  store i32 %113, ptr %3, align 4
  store i32 1, ptr %8, align 4
  br label %114

114:                                              ; preds = %112, %110, %64
  call void @llvm.lifetime.end.p0(i64 4, ptr %6) #11
  %115 = load i32, ptr %3, align 4
  ret i32 %115
}