; Function Attrs: mustprogress nofree nosync nounwind willreturn memory(read, inaccessiblemem: none) uwtable
define internal fastcc noundef i32 @_ZL11getnextlineP5Protoi(ptr noundef readonly captures(none) %0, i32 noundef %1) unnamed_addr #11 {
  %3 = getelementptr inbounds nuw i8, ptr %0, i64 56
  %4 = load ptr, ptr %3, align 8, !tbaa !57
  %.not = icmp eq ptr %4, null
  br i1 %.not, label %.loopexit, label %.preheader

.preheader:                                       ; preds = %2
  %5 = getelementptr inbounds nuw i8, ptr %0, i64 136
  %6 = load i32, ptr %5, align 8, !tbaa !84
  %.not6281 = icmp sgt i32 %6, 0
  br i1 %.not6281, label %.lr.ph, label %.loopexit

.lr.ph:                                           ; preds = %.preheader
  %7 = getelementptr inbounds nuw i8, ptr %0, i64 16
  %8 = load ptr, ptr %7, align 8, !tbaa !40
  %9 = getelementptr inbounds nuw i8, ptr %0, i64 64
  %10 = getelementptr inbounds nuw i8, ptr %0, i64 160
  %wide.trip.count = zext nneg i32 %6 to i64
  br label %11

11:                                               ; preds = %.lr.ph, %.thread
  %indvars.iv = phi i64 [ 0, %.lr.ph ], [ %indvars.iv.next, %.thread ]
  %.14283 = phi i32 [ -1, %.lr.ph ], [ %.344, %.thread ]
  %12 = getelementptr inbounds nuw i32, ptr %8, i64 %indvars.iv
  %13 = load i32, ptr %12, align 4, !tbaa !46
  %14 = and i32 %13, 255
  %15 = icmp eq i32 %14, 65
  br i1 %15, label %.thread, label %_Z12luaG_getlineP5Protoi.exit

_Z12luaG_getlineP5Protoi.exit:                    ; preds = %11
  %16 = load ptr, ptr %9, align 8, !tbaa !58
  %17 = load i32, ptr %10, align 8, !tbaa !59
  %18 = trunc nuw nsw i64 %indvars.iv to i32
  %19 = lshr i32 %18, %17
  %20 = zext nneg i32 %19 to i64
  %21 = getelementptr inbounds nuw i32, ptr %16, i64 %20
  %22 = load i32, ptr %21, align 4, !tbaa !46
  %23 = getelementptr inbounds nuw i8, ptr %4, i64 %indvars.iv
  %24 = load i8, ptr %23, align 1, !tbaa !26
  %25 = zext i8 %24 to i32
  %26 = add nsw i32 %22, %25
  %.not61 = icmp eq i32 %26, %1
  br i1 %.not61, label %.thread70, label %27

27:                                               ; preds = %_Z12luaG_getlineP5Protoi.exit
  %28 = icmp sgt i32 %26, %1
  br i1 %28, label %29, label %.thread

29:                                               ; preds = %27
  %30 = icmp eq i32 %.14283, -1
  %31 = tail call i32 @llvm.smin.i32(i32 %26, i32 %.14283)
  %spec.select66 = select i1 %30, i32 %26, i32 %31
  br label %.thread

.thread:                                          ; preds = %27, %29, %11
  %.344 = phi i32 [ %.14283, %11 ], [ %spec.select66, %29 ], [ %.14283, %27 ]
  %indvars.iv.next = add nuw nsw i64 %indvars.iv, 1
  %exitcond.not = icmp eq i64 %indvars.iv.next, %wide.trip.count
  br i1 %exitcond.not, label %.loopexit, label %11, !llvm.loop !95

.loopexit:                                        ; preds = %.thread, %.preheader, %2
  %.041 = phi i32 [ -1, %2 ], [ -1, %.preheader ], [ %.344, %.thread ]
  %32 = getelementptr inbounds nuw i8, ptr %0, i64 140
  %33 = load i32, ptr %32, align 4, !tbaa !89
  %.not6484 = icmp sgt i32 %33, 0
  br i1 %.not6484, label %.lr.ph87, label %.thread70

.lr.ph87:                                         ; preds = %.loopexit
  %34 = getelementptr inbounds nuw i8, ptr %0, i64 24
  %35 = load ptr, ptr %34, align 8, !tbaa !90
  %wide.trip.count96 = zext nneg i32 %33 to i64
  br label %36

36:                                               ; preds = %.lr.ph87, %40
  %indvars.iv93 = phi i64 [ 0, %.lr.ph87 ], [ %indvars.iv.next94, %40 ]
  %.64785 = phi i32 [ %.041, %.lr.ph87 ], [ %.849.ph, %40 ]
  %37 = getelementptr inbounds nuw ptr, ptr %35, i64 %indvars.iv93
  %38 = load ptr, ptr %37, align 8, !tbaa !91
  %39 = tail call fastcc noundef i32 @_ZL11getnextlineP5Protoi(ptr noundef %38, i32 noundef %1)
  %.not63 = icmp eq i32 %39, %1
  br i1 %.not63, label %.thread70, label %40

40:                                               ; preds = %36
  %41 = icmp sgt i32 %39, %1
  %42 = icmp eq i32 %.64785, -1
  %43 = tail call i32 @llvm.smin.i32(i32 %39, i32 %.64785)
  %spec.select67 = select i1 %42, i32 %39, i32 %43
  %.849.ph = select i1 %41, i32 %spec.select67, i32 %.64785
  %indvars.iv.next94 = add nuw nsw i64 %indvars.iv93, 1
  %exitcond97.not = icmp eq i64 %indvars.iv.next94, %wide.trip.count96
  br i1 %exitcond97.not, label %.thread70, label %36, !llvm.loop !96

.thread70:                                        ; preds = %_Z12luaG_getlineP5Protoi.exit, %36, %40, %.loopexit
  %.5 = phi i32 [ %.041, %.loopexit ], [ %1, %36 ], [ %.849.ph, %40 ], [ %1, %_Z12luaG_getlineP5Protoi.exit ]
  ret i32 %.5
}